target datalayout = "e-m:e-p270:32:32-p271:32:32-p272:64:64-i64:64-i128:128-f80:128-n8:16:32:64-S128"
target triple = "x86_64-pc-linux-gnu"

%struct._SPI_connection = type { i64, ptr, i32, %struct.slist_head, ptr, ptr, ptr, i32, ptr, i8, i8, i64, ptr, i32 }
%struct.slist_head = type { %struct.slist_node }
%struct.slist_node = type { ptr }

@SPI_processed = dso_local global i64 0, align 8
@SPI_tuptable = dso_local global ptr null, align 8
@SPI_result = dso_local global i32 0, align 4
@_SPI_stack = internal global ptr null, align 8
@_SPI_connected = internal global i32 -1, align 4
@.str.1 = private unnamed_addr constant [6 x i8] c"spi.c\00", align 1
@_SPI_current = internal global ptr null, align 8
@.str.4 = private unnamed_addr constant [37 x i8] c"transaction left non-empty SPI stack\00", align 1
@.str.5 = private unnamed_addr constant [38 x i8] c"Check for missing \22SPI_finish\22 calls.\00", align 1
@__func__.AtEOXact_SPI = private unnamed_addr constant [13 x i8] c"AtEOXact_SPI\00", align 1

; Function Attrs: nounwind uwtable
define dso_local void @AtEOXact_SPI(i1 noundef zeroext %0) #0 {
  %2 = alloca i8, align 1
  %3 = alloca i8, align 1
  %4 = alloca ptr, align 8
  %5 = alloca i32, align 4
  %6 = zext i1 %0 to i8
  store i8 %6, ptr %2, align 1
  call void @llvm.lifetime.start.p0(i64 1, ptr %3) #9
  store i8 0, ptr %3, align 1
  br label %7

7:                                                ; preds = %43, %1
  %8 = load i32, ptr @_SPI_connected, align 4
  %9 = icmp sge i32 %8, 0
  br i1 %9, label %10, label %44

10:                                               ; preds = %7
  call void @llvm.lifetime.start.p0(i64 8, ptr %4) #9
  %11 = load ptr, ptr @_SPI_stack, align 8
  %12 = load i32, ptr @_SPI_connected, align 4
  %13 = sext i32 %12 to i64
  %14 = getelementptr inbounds %struct._SPI_connection, ptr %11, i64 %13
  store ptr %14, ptr %4, align 8
  %15 = load ptr, ptr %4, align 8
  %16 = getelementptr inbounds nuw %struct._SPI_connection, ptr %15, i32 0, i32 10
  %17 = load i8, ptr %16, align 1, !range !4, !noundef !5
  %18 = trunc i8 %17 to i1
  br i1 %18, label %19, label %20

19:                                               ; preds = %10
  store i32 3, ptr %5, align 4
  br label %41

20:                                               ; preds = %10
  store i8 1, ptr %3, align 1
  %21 = load ptr, ptr %4, align 8
  %22 = getelementptr inbounds nuw %struct._SPI_connection, ptr %21, i32 0, i32 11
  %23 = load i64, ptr %22, align 8
  store i64 %23, ptr @SPI_processed, align 8
  %24 = load ptr, ptr %4, align 8
  %25 = getelementptr inbounds nuw %struct._SPI_connection, ptr %24, i32 0, i32 12
  %26 = load ptr, ptr %25, align 8
  store ptr %26, ptr @SPI_tuptable, align 8
  %27 = load ptr, ptr %4, align 8
  %28 = getelementptr inbounds nuw %struct._SPI_connection, ptr %27, i32 0, i32 13
  %29 = load i32, ptr %28, align 8
  store i32 %29, ptr @SPI_result, align 4
  %30 = load i32, ptr @_SPI_connected, align 4
  %31 = add i32 %30, -1
  store i32 %31, ptr @_SPI_connected, align 4
  %32 = load i32, ptr @_SPI_connected, align 4
  %33 = icmp slt i32 %32, 0
  br i1 %33, label %34, label %35

34:                                               ; preds = %20
  store ptr null, ptr @_SPI_current, align 8
  br label %40

35:                                               ; preds = %20
  %36 = load ptr, ptr @_SPI_stack, align 8
  %37 = load i32, ptr @_SPI_connected, align 4
  %38 = sext i32 %37 to i64
  %39 = getelementptr inbounds %struct._SPI_connection, ptr %36, i64 %38
  store ptr %39, ptr @_SPI_current, align 8
  br label %40

40:                                               ; preds = %35, %34
  store i32 0, ptr %5, align 4
  br label %41

41:                                               ; preds = %40, %19
  call void @llvm.lifetime.end.p0(i64 8, ptr %4) #9
  %42 = load i32, ptr %5, align 4
  switch i32 %42, label %64 [
    i32 0, label %43
    i32 3, label %44
  ]

43:                                               ; preds = %41
  br label %7, !llvm.loop !6

44:                                               ; preds = %41, %7
  %45 = load i8, ptr %3, align 1, !range !4, !noundef !5
  %46 = trunc i8 %45 to i1
  br i1 %46, label %47, label %63

47:                                               ; preds = %44
  %48 = load i8, ptr %2, align 1, !range !4, !noundef !5
  %49 = trunc i8 %48 to i1
  br i1 %49, label %50, label %63

50:                                               ; preds = %47
  br label %51

51:                                               ; preds = %50
  br i1 false, label %52, label %54

52:                                               ; preds = %51
  %53 = call zeroext i1 @errstart_cold(i32 noundef 19, ptr noundef null) #10
  br i1 %53, label %56, label %60

54:                                               ; preds = %51
  %55 = call zeroext i1 @errstart(i32 noundef 19, ptr noundef null)
  br i1 %55, label %56, label %60

56:                                               ; preds = %54, %52
  %57 = call i32 @errcode(i32 noundef 64)
  %58 = call i32 (ptr, ...) @errmsg(ptr noundef @.str.4)
  %59 = call i32 (ptr, ...) @errhint(ptr noundef @.str.5)
  call void @errfinish(ptr noundef @.str.1, i32 noundef 472, ptr noundef @__func__.AtEOXact_SPI)
  br label %60

60:                                               ; preds = %56, %54, %52
  br label %61

61:                                               ; preds = %60
  br label %62

62:                                               ; preds = %61
  br label %63

63:                                               ; preds = %62, %47, %44
  call void @llvm.lifetime.end.p0(i64 1, ptr %3) #9
  ret void

64:                                               ; preds = %41
  unreachable
}