; Function Attrs: nounwind uwtable
define dso_local void @AtEOXact_SPI(i1 noundef zeroext %0) local_unnamed_addr #0 {
  %_SPI_connected.promoted = load i32, ptr @_SPI_connected, align 4
  %2 = icmp sgt i32 %_SPI_connected.promoted, -1
  br i1 %2, label %.lr.ph, label %.thread.thread

.lr.ph:                                           ; preds = %1
  %3 = load ptr, ptr @_SPI_stack, align 8
  %4 = zext nneg i32 %_SPI_connected.promoted to i64
  %5 = getelementptr inbounds nuw %struct._SPI_connection, ptr %3, i64 %4
  %6 = getelementptr inbounds nuw i8, ptr %5, i64 73
  %7 = load i8, ptr %6, align 1, !range !4, !noundef !5
  %8 = trunc nuw i8 %7 to i1
  br i1 %8, label %.thread, label %.lr.ph19

9:                                                ; preds = %.lr.ph19
  %10 = getelementptr inbounds nuw %struct._SPI_connection, ptr %3, i64 %indvars.iv.next
  %11 = getelementptr inbounds nuw i8, ptr %10, i64 73
  %12 = load i8, ptr %11, align 1, !range !4, !noundef !5
  %13 = trunc nuw i8 %12 to i1
  br i1 %13, label %.thread.loopexit, label %.lr.ph19

.lr.ph19:                                         ; preds = %.lr.ph, %9
  %14 = phi ptr [ %10, %9 ], [ %5, %.lr.ph ]
  %indvars.iv18 = phi i64 [ %indvars.iv.next, %9 ], [ %4, %.lr.ph ]
  %15 = getelementptr inbounds nuw i8, ptr %14, i64 80
  %16 = load i64, ptr %15, align 8
  store i64 %16, ptr @SPI_processed, align 8
  %17 = getelementptr inbounds nuw i8, ptr %14, i64 88
  %18 = load ptr, ptr %17, align 8
  store ptr %18, ptr @SPI_tuptable, align 8
  %19 = getelementptr inbounds nuw i8, ptr %14, i64 96
  %20 = load i32, ptr %19, align 8
  store i32 %20, ptr @SPI_result, align 4
  %indvars.iv.next = add nsw i64 %indvars.iv18, -1
  %21 = trunc nsw i64 %indvars.iv.next to i32
  %22 = icmp eq i64 %indvars.iv18, 0
  %23 = getelementptr inbounds nuw %struct._SPI_connection, ptr %3, i64 %indvars.iv.next
  %storemerge = select i1 %22, ptr null, ptr %23
  %24 = icmp sgt i64 %indvars.iv18, 0
  br i1 %24, label %9, label %.thread.loopexit

.thread.loopexit:                                 ; preds = %.lr.ph19, %9
  store i32 %21, ptr @_SPI_connected, align 4
  store ptr %storemerge, ptr @_SPI_current, align 8
  br label %.thread

.thread:                                          ; preds = %.thread.loopexit, %.lr.ph
  %.not.not.lcssa = xor i1 %8, true
  %brmerge.not = and i1 %0, %.not.not.lcssa
  br i1 %brmerge.not, label %25, label %.thread.thread

25:                                               ; preds = %.thread
  %26 = tail call zeroext i1 @errstart(i32 noundef 19, ptr noundef null) #15
  br i1 %26, label %27, label %.thread.thread

27:                                               ; preds = %25
  %28 = tail call i32 @errcode(i32 noundef 64) #15
  %29 = tail call i32 (ptr, ...) @errmsg(ptr noundef nonnull @.str.4) #15
  %30 = tail call i32 (ptr, ...) @errhint(ptr noundef nonnull @.str.5) #15
  tail call void @errfinish(ptr noundef nonnull @.str.1, i32 noundef 472, ptr noundef nonnull @__func__.AtEOXact_SPI) #15
  br label %.thread.thread

.thread.thread:                                   ; preds = %1, %.thread, %25, %27
  ret void
}